target datalayout = "e-m:e-p270:32:32-p271:32:32-p272:64:64-i64:64-i128:128-f80:128-n8:16:32:64-S128"
target triple = "x86_64-pc-linux-gnu"

%struct.ossl_qtx_st = type { ptr, ptr, %struct.ossl_qrl_enc_level_set_st, ptr, ptr, ptr, i64, %struct.ossl_list_st_txe, %struct.ossl_list_st_txe, i64, i64, ptr, i64, i64, i64, ptr, ptr, ptr, ptr, ptr, ptr }
%struct.ossl_qrl_enc_level_set_st = type { [4 x %struct.ossl_qrl_enc_level_st] }
%struct.ossl_qrl_enc_level_st = type { %struct.quic_hdr_protector_st, ptr, [2 x ptr], ptr, ptr, i64, i64, i32, i32, i8, i8, [2 x [16 x i8]], [64 x i8] }
%struct.quic_hdr_protector_st = type { ptr, ptr, ptr, ptr, i32 }
%struct.ossl_list_st_txe = type { ptr, ptr, i64 }

; Function Attrs: nounwind uwtable
define i32 @ossl_qtx_calculate_plaintext_payload_len(ptr noundef %0, i32 noundef %1, i64 noundef %2, ptr noundef %3) #0 {
  %5 = alloca i32, align 4
  %6 = alloca ptr, align 8
  %7 = alloca i32, align 4
  %8 = alloca i64, align 8
  %9 = alloca ptr, align 8
  %10 = alloca ptr, align 8
  %11 = alloca i64, align 8
  %12 = alloca i32, align 4
  store ptr %0, ptr %6, align 8, !tbaa !14
  store i32 %1, ptr %7, align 4, !tbaa !33
  store i64 %2, ptr %8, align 8, !tbaa !48
  store ptr %3, ptr %9, align 8, !tbaa !49
  call void @llvm.lifetime.start.p0(i64 8, ptr %10) #8
  %13 = load ptr, ptr %6, align 8, !tbaa !14
  %14 = getelementptr inbounds nuw %struct.ossl_qtx_st, ptr %13, i32 0, i32 2
  %15 = load i32, ptr %7, align 4, !tbaa !33
  %16 = call ptr @ossl_qrl_enc_level_set_get(ptr noundef %14, i32 noundef %15, i32 noundef 1)
  store ptr %16, ptr %10, align 8, !tbaa !51
  call void @llvm.lifetime.start.p0(i64 8, ptr %11) #8
  %17 = load ptr, ptr %10, align 8, !tbaa !51
  %18 = icmp eq ptr %17, null
  br i1 %18, label %19, label %21

19:                                               ; preds = %4
  %20 = load ptr, ptr %9, align 8, !tbaa !49
  store i64 0, ptr %20, align 8, !tbaa !48
  store i32 0, ptr %5, align 4
  store i32 1, ptr %12, align 4
  br label %37

21:                                               ; preds = %4
  %22 = load ptr, ptr %10, align 8, !tbaa !51
  %23 = getelementptr inbounds nuw %struct.ossl_qrl_enc_level_st, ptr %22, i32 0, i32 7
  %24 = load i32, ptr %23, align 8, !tbaa !53
  %25 = call i32 @ossl_qrl_get_suite_cipher_tag_len(i32 noundef %24)
  %26 = zext i32 %25 to i64
  store i64 %26, ptr %11, align 8, !tbaa !48
  %27 = load i64, ptr %8, align 8, !tbaa !48
  %28 = load i64, ptr %11, align 8, !tbaa !48
  %29 = icmp ule i64 %27, %28
  br i1 %29, label %30, label %32

30:                                               ; preds = %21
  %31 = load ptr, ptr %9, align 8, !tbaa !49
  store i64 0, ptr %31, align 8, !tbaa !48
  store i32 0, ptr %5, align 4
  store i32 1, ptr %12, align 4
  br label %37

32:                                               ; preds = %21
  %33 = load i64, ptr %8, align 8, !tbaa !48
  %34 = load i64, ptr %11, align 8, !tbaa !48
  %35 = sub i64 %33, %34
  %36 = load ptr, ptr %9, align 8, !tbaa !49
  store i64 %35, ptr %36, align 8, !tbaa !48
  store i32 1, ptr %5, align 4
  store i32 1, ptr %12, align 4
  br label %37

37:                                               ; preds = %32, %30, %19
  call void @llvm.lifetime.end.p0(i64 8, ptr %11) #8
  call void @llvm.lifetime.end.p0(i64 8, ptr %10) #8
  %38 = load i32, ptr %5, align 4
  ret i32 %38
}