; Function Attrs: nounwind uwtable
define range(i32 0, 2) i32 @ossl_qtx_calculate_plaintext_payload_len(ptr noundef %0, i32 noundef %1, i64 noundef %2, ptr noundef writeonly captures(none) initializes((0, 8)) %3) local_unnamed_addr #0 {
  %5 = getelementptr inbounds nuw i8, ptr %0, i64 16
  %6 = tail call ptr @ossl_qrl_enc_level_set_get(ptr noundef nonnull %5, i32 noundef %1, i32 noundef 1) #11
  %7 = icmp eq ptr %6, null
  br i1 %7, label %13, label %8

8:                                                ; preds = %4
  %9 = getelementptr inbounds nuw i8, ptr %6, i64 96
  %10 = load i32, ptr %9, align 8, !tbaa !39
  %11 = tail call i32 @ossl_qrl_get_suite_cipher_tag_len(i32 noundef %10) #11
  %12 = zext i32 %11 to i64
  %.not = icmp ugt i64 %2, %12
  %spec.select = tail call i64 @llvm.usub.sat.i64(i64 %2, i64 %12)
  %spec.select14 = zext i1 %.not to i32
  br label %13

13:                                               ; preds = %8, %4
  %.sink = phi i64 [ 0, %4 ], [ %spec.select, %8 ]
  %.0 = phi i32 [ 0, %4 ], [ %spec.select14, %8 ]
  store i64 %.sink, ptr %3, align 8, !tbaa !46
  ret i32 %.0
}